target datalayout = "e-m:e-p270:32:32-p271:32:32-p272:64:64-i64:64-i128:128-f80:128-n8:16:32:64-S128"
target triple = "x86_64-pc-linux-gnu"

%struct.VuVirtq = type { %struct.VuRing, ptr, ptr, i16, i64, i16, i16, i16, i16, i8, i8, i32, ptr, i32, i32, i32, i32, i8, %struct.vhost_vring_addr }
%struct.VuRing = type { i32, ptr, ptr, ptr, i64, i32 }
%struct.vhost_vring_addr = type { i32, i32, i64, i64, i64, i64 }

; Function Attrs: nounwind uwtable
define dso_local zeroext i1 @vu_queue_rewind(ptr noundef %0, ptr noundef %1, i32 noundef %2) #0 {
  %4 = alloca i1, align 1
  %5 = alloca ptr, align 8
  %6 = alloca ptr, align 8
  %7 = alloca i32, align 4
  store ptr %0, ptr %5, align 8
  store ptr %1, ptr %6, align 8
  store i32 %2, ptr %7, align 4
  %8 = load i32, ptr %7, align 4
  %9 = load ptr, ptr %6, align 8
  %10 = getelementptr inbounds nuw %struct.VuVirtq, ptr %9, i32 0, i32 11
  %11 = load i32, ptr %10, align 4
  %12 = icmp ugt i32 %8, %11
  br i1 %12, label %13, label %14

13:                                               ; preds = %3
  store i1 false, ptr %4, align 1
  br label %27

14:                                               ; preds = %3
  %15 = load i32, ptr %7, align 4
  %16 = load ptr, ptr %6, align 8
  %17 = getelementptr inbounds nuw %struct.VuVirtq, ptr %16, i32 0, i32 5
  %18 = load i16, ptr %17, align 8
  %19 = zext i16 %18 to i32
  %20 = sub i32 %19, %15
  %21 = trunc i32 %20 to i16
  store i16 %21, ptr %17, align 8
  %22 = load i32, ptr %7, align 4
  %23 = load ptr, ptr %6, align 8
  %24 = getelementptr inbounds nuw %struct.VuVirtq, ptr %23, i32 0, i32 11
  %25 = load i32, ptr %24, align 4
  %26 = sub i32 %25, %22
  store i32 %26, ptr %24, align 4
  store i1 true, ptr %4, align 1
  br label %27

27:                                               ; preds = %14, %13
  %28 = load i1, ptr %4, align 1
  ret i1 %28
}