; Function Attrs: mustprogress nofree norecurse nosync nounwind willreturn memory(argmem: readwrite) uwtable
define dso_local noundef zeroext i1 @vu_queue_rewind(ptr noundef readnone captures(none) %0, ptr noundef captures(none) %1, i32 noundef %2) local_unnamed_addr #13 {
  %4 = getelementptr inbounds nuw i8, ptr %1, i64 92
  %5 = load i32, ptr %4, align 4
  %6 = icmp ule i32 %2, %5
  br i1 %6, label %7, label %13

7:                                                ; preds = %3
  %8 = getelementptr inbounds nuw i8, ptr %1, i64 80
  %9 = load i16, ptr %8, align 8
  %10 = trunc i32 %2 to i16
  %11 = sub i16 %9, %10
  store i16 %11, ptr %8, align 8
  %12 = sub nuw i32 %5, %2
  store i32 %12, ptr %4, align 4
  br label %13

13:                                               ; preds = %3, %7
  ret i1 %6
}